; Function Attrs: nounwind uwtable
define ptr @l_Std_DHashMap_Internal_AssocList_foldrM___at_Lean_Compiler_LCNF_Simp_FunDeclInfoMap_format___spec__2(ptr noundef %0, ptr noundef %1) local_unnamed_addr #1 {
  %3 = ptrtoint ptr %1 to i64
  %4 = and i64 %3, 1
  %.not.i = icmp eq i64 %4, 0
  br i1 %.not.i, label %8, label %5

5:                                                ; preds = %2
  %6 = lshr i64 %3, 1
  %7 = trunc i64 %6 to i32
  br label %lean_obj_tag.exit

8:                                                ; preds = %2
  %9 = getelementptr i8, ptr %1, i64 4
  %.val.i = load i32, ptr %9, align 4
  %10 = lshr i32 %.val.i, 24
  br label %lean_obj_tag.exit

lean_obj_tag.exit:                                ; preds = %5, %8
  %.0.i = phi i32 [ %7, %5 ], [ %10, %8 ]
  %11 = icmp eq i32 %.0.i, 0
  br i1 %11, label %12, label %21

12:                                               ; preds = %lean_obj_tag.exit
  %13 = ptrtoint ptr %0 to i64
  %14 = and i64 %13, 1
  %.not32 = icmp eq i64 %14, 0
  br i1 %.not32, label %15, label %lean_inc.exit21

15:                                               ; preds = %12
  %.val.i22 = load i32, ptr %0, align 4, !tbaa !4
  %16 = icmp sgt i32 %.val.i22, 0
  br i1 %16, label %17, label %19, !prof !9

17:                                               ; preds = %15
  %18 = add nuw i32 %.val.i22, 1
  store i32 %18, ptr %0, align 4, !tbaa !4
  br label %lean_inc.exit21

19:                                               ; preds = %15
  %.not.i23 = icmp eq i32 %.val.i22, 0
  br i1 %.not.i23, label %lean_inc.exit21, label %20

20:                                               ; preds = %19
  tail call void @lean_inc_ref_cold(ptr noundef nonnull %0) #6
  br label %lean_inc.exit21

21:                                               ; preds = %lean_obj_tag.exit
  %22 = getelementptr inbounds nuw i8, ptr %1, i64 8
  %23 = load ptr, ptr %22, align 8, !tbaa !10
  %24 = getelementptr inbounds nuw i8, ptr %1, i64 16
  %25 = load ptr, ptr %24, align 8, !tbaa !10
  %26 = getelementptr inbounds nuw i8, ptr %1, i64 24
  %27 = load ptr, ptr %26, align 8, !tbaa !10
  %28 = tail call ptr @l_Std_DHashMap_Internal_AssocList_foldrM___at_Lean_Compiler_LCNF_Simp_FunDeclInfoMap_format___spec__2(ptr noundef %0, ptr noundef %27)
  %29 = ptrtoint ptr %25 to i64
  %30 = and i64 %29, 1
  %.not = icmp eq i64 %30, 0
  br i1 %.not, label %31, label %lean_inc.exit20

31:                                               ; preds = %21
  %.val.i24 = load i32, ptr %25, align 4, !tbaa !4
  %32 = icmp sgt i32 %.val.i24, 0
  br i1 %32, label %33, label %35, !prof !9

33:                                               ; preds = %31
  %34 = add nuw i32 %.val.i24, 1
  store i32 %34, ptr %25, align 4, !tbaa !4
  br label %lean_inc.exit20

35:                                               ; preds = %31
  %.not.i25 = icmp eq i32 %.val.i24, 0
  br i1 %.not.i25, label %lean_inc.exit20, label %36

36:                                               ; preds = %35
  tail call void @lean_inc_ref_cold(ptr noundef nonnull %25) #6
  br label %lean_inc.exit20

lean_inc.exit20:                                  ; preds = %36, %35, %33, %21
  %37 = ptrtoint ptr %23 to i64
  %38 = and i64 %37, 1
  %.not31 = icmp eq i64 %38, 0
  br i1 %.not31, label %39, label %lean_inc.exit

39:                                               ; preds = %lean_inc.exit20
  %.val.i27 = load i32, ptr %23, align 4, !tbaa !4
  %40 = icmp sgt i32 %.val.i27, 0
  br i1 %40, label %41, label %43, !prof !9

41:                                               ; preds = %39
  %42 = add nuw i32 %.val.i27, 1
  store i32 %42, ptr %23, align 4, !tbaa !4
  br label %lean_inc.exit

43:                                               ; preds = %39
  %.not.i28 = icmp eq i32 %.val.i27, 0
  br i1 %.not.i28, label %lean_inc.exit, label %44

44:                                               ; preds = %43
  tail call void @lean_inc_ref_cold(ptr noundef nonnull %23) #6
  br label %lean_inc.exit

lean_inc.exit:                                    ; preds = %44, %43, %41, %lean_inc.exit20
  tail call void @lean_inc_heartbeat() #6
  %45 = tail call noalias ptr @mi_malloc_small(i64 noundef 24) #6
  %46 = icmp eq ptr %45, null
  br i1 %46, label %47, label %lean_alloc_ctor.exit

47:                                               ; preds = %lean_inc.exit
  tail call void @lean_internal_panic_out_of_memory() #7
  unreachable

lean_alloc_ctor.exit:                             ; preds = %lean_inc.exit
  %48 = getelementptr inbounds nuw i8, ptr %45, i64 4
  store i32 1, ptr %45, align 4, !tbaa !4
  store i32 131096, ptr %48, align 4
  %49 = getelementptr inbounds nuw i8, ptr %45, i64 8
  store ptr %23, ptr %49, align 8, !tbaa !10
  %50 = getelementptr inbounds nuw i8, ptr %45, i64 16
  store ptr %25, ptr %50, align 8, !tbaa !10
  tail call void @lean_inc_heartbeat() #6
  %51 = tail call noalias ptr @mi_malloc_small(i64 noundef 24) #6
  %52 = icmp eq ptr %51, null
  br i1 %52, label %53, label %lean_alloc_ctor.exit30

53:                                               ; preds = %lean_alloc_ctor.exit
  tail call void @lean_internal_panic_out_of_memory() #7
  unreachable

lean_alloc_ctor.exit30:                           ; preds = %lean_alloc_ctor.exit
  %54 = getelementptr inbounds nuw i8, ptr %51, i64 4
  store i32 1, ptr %51, align 4, !tbaa !4
  store i32 16908312, ptr %54, align 4
  %55 = getelementptr inbounds nuw i8, ptr %51, i64 8
  store ptr %45, ptr %55, align 8, !tbaa !10
  %56 = getelementptr inbounds nuw i8, ptr %51, i64 16
  store ptr %28, ptr %56, align 8, !tbaa !10
  br label %lean_inc.exit21

lean_inc.exit21:                                  ; preds = %12, %17, %19, %20, %lean_alloc_ctor.exit30
  %.0 = phi ptr [ %51, %lean_alloc_ctor.exit30 ], [ %0, %20 ], [ %0, %19 ], [ %0, %17 ], [ %0, %12 ]
  ret ptr %.0
}